target datalayout = "e-m:e-p270:32:32-p271:32:32-p272:64:64-i64:64-i128:128-f80:128-n8:16:32:64-S128"
target triple = "x86_64-pc-linux-gnu"

@_ZN9Stockfish12_GLOBAL__N_18MapPawnsE = internal global [64 x i32] zeroinitializer, align 16

; Function Attrs: mustprogress nounwind uwtable
define internal noundef zeroext i1 @_ZN9Stockfish12_GLOBAL__N_110pawns_compENS_6SquareES1_(i32 noundef %0, i32 noundef %1) #4 {
  %3 = alloca i32, align 4
  %4 = alloca i32, align 4
  store i32 %0, ptr %3, align 4
  store i32 %1, ptr %4, align 4
  %5 = load i32, ptr %3, align 4
  %6 = sext i32 %5 to i64
  %7 = getelementptr inbounds [64 x i32], ptr @_ZN9Stockfish12_GLOBAL__N_18MapPawnsE, i64 0, i64 %6
  %8 = load i32, ptr %7, align 4
  %9 = load i32, ptr %4, align 4
  %10 = sext i32 %9 to i64
  %11 = getelementptr inbounds [64 x i32], ptr @_ZN9Stockfish12_GLOBAL__N_18MapPawnsE, i64 0, i64 %10
  %12 = load i32, ptr %11, align 4
  %13 = icmp slt i32 %8, %12
  ret i1 %13
}