; Function Attrs: mustprogress nofree norecurse nosync nounwind willreturn memory(read, argmem: none, inaccessiblemem: none) uwtable
define internal noundef zeroext i1 @_ZN9Stockfish12_GLOBAL__N_110pawns_compENS_6SquareES1_(i32 noundef %0, i32 noundef %1) #14 {
  %3 = sext i32 %0 to i64
  %4 = getelementptr inbounds [64 x i32], ptr @_ZN9Stockfish12_GLOBAL__N_18MapPawnsE, i64 0, i64 %3
  %5 = load i32, ptr %4, align 4
  %6 = sext i32 %1 to i64
  %7 = getelementptr inbounds [64 x i32], ptr @_ZN9Stockfish12_GLOBAL__N_18MapPawnsE, i64 0, i64 %6
  %8 = load i32, ptr %7, align 4
  %9 = icmp slt i32 %5, %8
  ret i1 %9
}